target datalayout = "e-m:e-p270:32:32-p271:32:32-p272:64:64-i64:64-i128:128-f80:128-n8:16:32:64-S128"
target triple = "x86_64-pc-linux-gnu"

; Function Attrs: nounwind sspstrong uwtable
define internal i64 @enum_flat_map(i64 noundef %0) #0 {
  %2 = alloca i64, align 8
  %3 = alloca i64, align 8
  %4 = alloca i64, align 8
  %5 = alloca i64, align 8
  %6 = alloca i32, align 4
  store i64 %0, ptr %3, align 8, !tbaa !14
  call void @llvm.lifetime.start.p0(i64 8, ptr %4) #22
  br label %7

7:                                                ; preds = %1
  %8 = call i32 @rb_block_given_p()
  %9 = icmp ne i32 %8, 0
  br i1 %9, label %16, label %10

10:                                               ; preds = %7
  %11 = load i64, ptr %3, align 8, !tbaa !14
  %12 = call i64 @rb_frame_this_func()
  %13 = call i64 @rb_id2sym(i64 noundef %12)
  store i64 %13, ptr %5, align 8, !tbaa !14
  %14 = load i64, ptr %5, align 8, !tbaa !14
  %15 = call i64 @rb_enumeratorize_with_size(i64 noundef %11, i64 noundef %14, i32 noundef 0, ptr noundef null, ptr noundef @enum_size)
  store i64 %15, ptr %2, align 8
  store i32 1, ptr %6, align 4
  br label %24

16:                                               ; preds = %7
  br label %17

17:                                               ; preds = %16
  br label %18

18:                                               ; preds = %17
  %19 = call i64 @rb_ary_new()
  store i64 %19, ptr %4, align 8, !tbaa !14
  %20 = load i64, ptr %3, align 8, !tbaa !14
  %21 = load i64, ptr %4, align 8, !tbaa !14
  %22 = call i64 @rb_block_call(i64 noundef %20, i64 noundef 3073, i32 noundef 0, ptr noundef null, ptr noundef @flat_map_i, i64 noundef %21)
  %23 = load i64, ptr %4, align 8, !tbaa !14
  store i64 %23, ptr %2, align 8
  store i32 1, ptr %6, align 4
  br label %24

24:                                               ; preds = %18, %10
  call void @llvm.lifetime.end.p0(i64 8, ptr %4) #22
  %25 = load i64, ptr %2, align 8
  ret i64 %25
}